; Function Attrs: nounwind uwtable
define ptr @Pdr_ManFetchSolver(ptr noundef %0, i32 noundef %1) local_unnamed_addr #0 {
  %3 = getelementptr i8, ptr %0, i64 104
  %.val39 = load ptr, ptr %3, align 8
  %4 = getelementptr i8, ptr %.val39, i64 8
  %.val39.val = load ptr, ptr %4, align 8
  %5 = sext i32 %1 to i64
  %6 = getelementptr inbounds ptr, ptr %.val39.val, i64 %5
  %7 = load ptr, ptr %6, align 8
  %8 = getelementptr inbounds nuw i8, ptr %0, i64 136
  %9 = load ptr, ptr %8, align 8
  %10 = getelementptr i8, ptr %9, i64 8
  %.val40 = load ptr, ptr %10, align 8
  %11 = getelementptr inbounds i32, ptr %.val40, i64 %5
  %12 = load i32, ptr %11, align 4
  %13 = load ptr, ptr %0, align 8
  %14 = load i32, ptr %13, align 8
  %15 = icmp slt i32 %12, %14
  br i1 %15, label %.critedge, label %16

16:                                               ; preds = %2
  %17 = getelementptr inbounds nuw i8, ptr %0, i64 320
  %18 = load i32, ptr %17, align 8
  %19 = add nsw i32 %18, 1
  store i32 %19, ptr %17, align 8
  %20 = getelementptr inbounds nuw i8, ptr %13, i64 32
  %21 = load i32, ptr %20, align 8
  %22 = sitofp i32 %21 to double
  tail call void @zsat_solver_restart_seed(ptr noundef %7, double noundef %22) #8
  %23 = icmp eq i32 %1, 0
  %24 = zext i1 %23 to i32
  %25 = tail call ptr @Pdr_ManNewSolver(ptr noundef %7, ptr noundef nonnull %0, i32 noundef %1, i32 noundef %24) #8
  %26 = load ptr, ptr %3, align 8
  %27 = getelementptr i8, ptr %26, i64 8
  %.val41 = load ptr, ptr %27, align 8
  %28 = getelementptr inbounds ptr, ptr %.val41, i64 %5
  store ptr %25, ptr %28, align 8
  %29 = load ptr, ptr %8, align 8
  %30 = getelementptr i8, ptr %29, i64 8
  %.val42 = load ptr, ptr %30, align 8
  %31 = getelementptr inbounds i32, ptr %.val42, i64 %5
  store i32 0, ptr %31, align 4
  tail call void @Pdr_ManSetPropertyOutput(ptr noundef nonnull %0, i32 noundef %1)
  %32 = getelementptr inbounds nuw i8, ptr %0, i64 112
  %33 = load ptr, ptr %32, align 8
  %34 = getelementptr i8, ptr %33, i64 4
  %.val4348 = load i32, ptr %34, align 4
  %35 = icmp slt i32 %1, %.val4348
  br i1 %35, label %.lr.ph50, label %.critedge

.lr.ph50:                                         ; preds = %16, %.critedge2
  %36 = phi ptr [ %63, %.critedge2 ], [ %33, %16 ]
  %indvars.iv52 = phi i64 [ %indvars.iv.next53, %.critedge2 ], [ %5, %16 ]
  %37 = getelementptr i8, ptr %36, i64 8
  %.val44 = load ptr, ptr %37, align 8
  %38 = getelementptr inbounds ptr, ptr %.val44, i64 %indvars.iv52
  %39 = load ptr, ptr %38, align 8
  %40 = getelementptr i8, ptr %39, i64 4
  %.val4546 = load i32, ptr %40, align 4
  %41 = icmp sgt i32 %.val4546, 0
  br i1 %41, label %.lr.ph, label %.critedge2

.lr.ph:                                           ; preds = %.lr.ph50
  %42 = getelementptr i8, ptr %39, i64 8
  br label %43

43:                                               ; preds = %.lr.ph, %Pdr_ManSolverAddClause.exit
  %indvars.iv = phi i64 [ 0, %.lr.ph ], [ %indvars.iv.next, %Pdr_ManSolverAddClause.exit ]
  %.val = load ptr, ptr %42, align 8
  %44 = getelementptr inbounds nuw ptr, ptr %.val, i64 %indvars.iv
  %45 = load ptr, ptr %44, align 8
  %.val.i = load ptr, ptr %3, align 8
  %46 = getelementptr i8, ptr %.val.i, i64 8
  %.val.val.i = load ptr, ptr %46, align 8
  %47 = getelementptr inbounds ptr, ptr %.val.val.i, i64 %5
  %48 = load ptr, ptr %47, align 8
  %49 = tail call ptr @Pdr_ManCubeToLits(ptr noundef nonnull %0, i32 noundef %1, ptr noundef readonly %45, i32 noundef 1, i32 noundef 0)
  %50 = getelementptr i8, ptr %49, i64 8
  %.val9.i = load ptr, ptr %50, align 8
  %51 = getelementptr i8, ptr %49, i64 4
  %.val11.i = load i32, ptr %51, align 4
  %52 = sext i32 %.val11.i to i64
  %53 = getelementptr inbounds i32, ptr %.val9.i, i64 %52
  %54 = tail call i32 @sat_solver_addclause(ptr noundef %48, ptr noundef %.val9.i, ptr noundef %53) #8
  %55 = getelementptr inbounds nuw i8, ptr %48, i64 12
  %56 = load i32, ptr %55, align 4
  %57 = getelementptr inbounds nuw i8, ptr %48, i64 8
  %58 = load i32, ptr %57, align 8
  %.not.i.i = icmp eq i32 %56, %58
  br i1 %.not.i.i, label %Pdr_ManSolverAddClause.exit, label %59

59:                                               ; preds = %43
  %60 = tail call i32 @sat_solver_simplify(ptr noundef nonnull %48) #8
  br label %Pdr_ManSolverAddClause.exit

Pdr_ManSolverAddClause.exit:                      ; preds = %43, %59
  %indvars.iv.next = add nuw nsw i64 %indvars.iv, 1
  %.val45 = load i32, ptr %40, align 4
  %61 = sext i32 %.val45 to i64
  %62 = icmp slt i64 %indvars.iv.next, %61
  br i1 %62, label %43, label %.critedge2.loopexit, !llvm.loop !7

.critedge2.loopexit:                              ; preds = %Pdr_ManSolverAddClause.exit
  %.pre = load ptr, ptr %32, align 8
  br label %.critedge2

.critedge2:                                       ; preds = %.critedge2.loopexit, %.lr.ph50
  %63 = phi ptr [ %.pre, %.critedge2.loopexit ], [ %36, %.lr.ph50 ]
  %indvars.iv.next53 = add nsw i64 %indvars.iv52, 1
  %64 = getelementptr i8, ptr %63, i64 4
  %.val43 = load i32, ptr %64, align 4
  %65 = sext i32 %.val43 to i64
  %66 = icmp slt i64 %indvars.iv.next53, %65
  br i1 %66, label %.lr.ph50, label %.critedge, !llvm.loop !8

.critedge:                                        ; preds = %.critedge2, %16, %2
  %.038 = phi ptr [ %7, %2 ], [ %25, %16 ], [ %25, %.critedge2 ]
  ret ptr %.038
}